; Function Attrs: nofree norecurse nosync nounwind memory(read, inaccessiblemem: none) uwtable
define i64 @Cudd_ReadPeakNodeCount(ptr noundef readonly captures(none) %0) local_unnamed_addr #9 {
  %2 = getelementptr inbounds nuw i8, ptr %0, i64 392
  br label %3

3:                                                ; preds = %3, %1
  %.04 = phi i64 [ 0, %1 ], [ %4, %3 ]
  %.0.in = phi ptr [ %2, %1 ], [ %.0, %3 ]
  %.0 = load ptr, ptr %.0.in, align 8
  %.not = icmp eq ptr %.0, null
  %4 = add nuw nsw i64 %.04, 1022
  br i1 %.not, label %5, label %3, !llvm.loop !28

5:                                                ; preds = %3
  ret i64 %.04
}